(lp0
(lp1
I1
aV000001
p2
aa(lp3
I0
aV399001
p4
aa(lp5
I0
aV000776
p6
aa(lp7
I1
aV600030
p8
aa(lp9
I0
aV000016
p10
aa(lp11
I0
aV000021
p12
aa(lp13
I1
aV600770
p14
aa(lp15
I1
aV601958
p16
aa(lp17
I0
aV000009
p18
aa(lp19
I1
aV600533
p20
aa.