(lp0
(lp1
L1L
aV000001
p2
aa(lp3
L0L
aV399001
p4
aa(lp5
L0L
aV000776
p6
aa(lp7
L1L
aV600030
p8
aa(lp9
L0L
aV000016
p10
aa(lp11
L0L
aV000021
p12
aa(lp13
L1L
aV600770
p14
aa(lp15
L1L
aV601958
p16
aa(lp17
L0L
aV000009
p18
aa(lp19
L1L
aV600533
p20
aa.